target datalayout = "e-m:e-p270:32:32-p271:32:32-p272:64:64-i64:64-i128:128-f80:128-n8:16:32:64-S128"
target triple = "x86_64-pc-linux-gnu"

%struct.srp_arg_st = type { ptr, ptr, i32, i32, i32, i32 }

@bio_err = external global ptr, align 8
@.str.9 = private unnamed_addr constant [17 x i8] c"SRP parameters:\0A\00", align 1
@.str.10 = private unnamed_addr constant [4 x i8] c"\09N=\00", align 1
@.str.11 = private unnamed_addr constant [5 x i8] c"\0A\09g=\00", align 1
@.str.12 = private unnamed_addr constant [2 x i8] c"\0A\00", align 1
@.str.13 = private unnamed_addr constant [64 x i8] c"SRP param N and g are not known params, going to check deeper.\0A\00", align 1
@.str.14 = private unnamed_addr constant [29 x i8] c"SRP param N and g rejected.\0A\00", align 1

; Function Attrs: nounwind uwtable
define internal i32 @srp_Verify_N_and_g(ptr noundef %0, ptr noundef %1) #0 {
  %3 = alloca ptr, align 8
  %4 = alloca ptr, align 8
  %5 = alloca ptr, align 8
  %6 = alloca ptr, align 8
  %7 = alloca ptr, align 8
  %8 = alloca i32, align 4
  store ptr %0, ptr %3, align 8, !tbaa !30
  store ptr %1, ptr %4, align 8, !tbaa !30
  call void @llvm.lifetime.start.p0(i64 8, ptr %5) #3
  %9 = call ptr @BN_CTX_new()
  store ptr %9, ptr %5, align 8, !tbaa !48
  call void @llvm.lifetime.start.p0(i64 8, ptr %6) #3
  %10 = call ptr @BN_new()
  store ptr %10, ptr %6, align 8, !tbaa !30
  call void @llvm.lifetime.start.p0(i64 8, ptr %7) #3
  %11 = call ptr @BN_new()
  store ptr %11, ptr %7, align 8, !tbaa !30
  call void @llvm.lifetime.start.p0(i64 4, ptr %8) #3
  %12 = load ptr, ptr %4, align 8, !tbaa !30
  %13 = icmp ne ptr %12, null
  br i1 %13, label %14, label %62

14:                                               ; preds = %2
  %15 = load ptr, ptr %3, align 8, !tbaa !30
  %16 = icmp ne ptr %15, null
  br i1 %16, label %17, label %62

17:                                               ; preds = %14
  %18 = load ptr, ptr %5, align 8, !tbaa !48
  %19 = icmp ne ptr %18, null
  br i1 %19, label %20, label %62

20:                                               ; preds = %17
  %21 = load ptr, ptr %3, align 8, !tbaa !30
  %22 = call i32 @BN_is_odd(ptr noundef %21)
  %23 = icmp ne i32 %22, 0
  br i1 %23, label %24, label %62

24:                                               ; preds = %20
  %25 = load ptr, ptr %3, align 8, !tbaa !30
  %26 = load ptr, ptr %5, align 8, !tbaa !48
  %27 = call i32 @BN_check_prime(ptr noundef %25, ptr noundef %26, ptr noundef null)
  %28 = icmp eq i32 %27, 1
  br i1 %28, label %29, label %62

29:                                               ; preds = %24
  %30 = load ptr, ptr %6, align 8, !tbaa !30
  %31 = icmp ne ptr %30, null
  br i1 %31, label %32, label %62

32:                                               ; preds = %29
  %33 = load ptr, ptr %6, align 8, !tbaa !30
  %34 = load ptr, ptr %3, align 8, !tbaa !30
  %35 = call i32 @BN_rshift1(ptr noundef %33, ptr noundef %34)
  %36 = icmp ne i32 %35, 0
  br i1 %36, label %37, label %62

37:                                               ; preds = %32
  %38 = load ptr, ptr %6, align 8, !tbaa !30
  %39 = load ptr, ptr %5, align 8, !tbaa !48
  %40 = call i32 @BN_check_prime(ptr noundef %38, ptr noundef %39, ptr noundef null)
  %41 = icmp eq i32 %40, 1
  br i1 %41, label %42, label %62

42:                                               ; preds = %37
  %43 = load ptr, ptr %7, align 8, !tbaa !30
  %44 = icmp ne ptr %43, null
  br i1 %44, label %45, label %62

45:                                               ; preds = %42
  %46 = load ptr, ptr %7, align 8, !tbaa !30
  %47 = load ptr, ptr %4, align 8, !tbaa !30
  %48 = load ptr, ptr %6, align 8, !tbaa !30
  %49 = load ptr, ptr %3, align 8, !tbaa !30
  %50 = load ptr, ptr %5, align 8, !tbaa !48
  %51 = call i32 @BN_mod_exp(ptr noundef %46, ptr noundef %47, ptr noundef %48, ptr noundef %49, ptr noundef %50)
  %52 = icmp ne i32 %51, 0
  br i1 %52, label %53, label %62

53:                                               ; preds = %45
  %54 = load ptr, ptr %7, align 8, !tbaa !30
  %55 = call i32 @BN_add_word(ptr noundef %54, i64 noundef 1)
  %56 = icmp ne i32 %55, 0
  br i1 %56, label %57, label %62

57:                                               ; preds = %53
  %58 = load ptr, ptr %7, align 8, !tbaa !30
  %59 = load ptr, ptr %3, align 8, !tbaa !30
  %60 = call i32 @BN_cmp(ptr noundef %58, ptr noundef %59)
  %61 = icmp eq i32 %60, 0
  br label %62

62:                                               ; preds = %57, %53, %45, %42, %37, %32, %29, %24, %20, %17, %14, %2
  %63 = phi i1 [ false, %53 ], [ false, %45 ], [ false, %42 ], [ false, %37 ], [ false, %32 ], [ false, %29 ], [ false, %24 ], [ false, %20 ], [ false, %17 ], [ false, %14 ], [ false, %2 ], [ %61, %57 ]
  %64 = zext i1 %63 to i32
  store i32 %64, ptr %8, align 4, !tbaa !10
  %65 = load ptr, ptr %7, align 8, !tbaa !30
  call void @BN_free(ptr noundef %65)
  %66 = load ptr, ptr %6, align 8, !tbaa !30
  call void @BN_free(ptr noundef %66)
  %67 = load ptr, ptr %5, align 8, !tbaa !48
  call void @BN_CTX_free(ptr noundef %67)
  %68 = load i32, ptr %8, align 4, !tbaa !10
  call void @llvm.lifetime.end.p0(i64 4, ptr %8) #3
  call void @llvm.lifetime.end.p0(i64 8, ptr %7) #3
  call void @llvm.lifetime.end.p0(i64 8, ptr %6) #3
  call void @llvm.lifetime.end.p0(i64 8, ptr %5) #3
  ret i32 %68
}

; Function Attrs: nounwind uwtable
define internal i32 @ssl_srp_verify_param_cb(ptr noundef %0, ptr noundef %1) #0 {
  %3 = alloca i32, align 4
  %4 = alloca ptr, align 8
  %5 = alloca ptr, align 8
  %6 = alloca ptr, align 8
  %7 = alloca ptr, align 8
  %8 = alloca ptr, align 8
  %9 = alloca i32, align 4
  store ptr %0, ptr %4, align 8, !tbaa !21
  store ptr %1, ptr %5, align 8, !tbaa !23
  call void @llvm.lifetime.start.p0(i64 8, ptr %6) #3
  %10 = load ptr, ptr %5, align 8, !tbaa !23
  store ptr %10, ptr %6, align 8, !tbaa !8
  call void @llvm.lifetime.start.p0(i64 8, ptr %7) #3
  store ptr null, ptr %7, align 8, !tbaa !30
  call void @llvm.lifetime.start.p0(i64 8, ptr %8) #3
  store ptr null, ptr %8, align 8, !tbaa !30
  %11 = load ptr, ptr %4, align 8, !tbaa !21
  %12 = call ptr @SSL_get_srp_N(ptr noundef %11)
  store ptr %12, ptr %7, align 8, !tbaa !30
  %13 = icmp eq ptr %12, null
  br i1 %13, label %18, label %14

14:                                               ; preds = %2
  %15 = load ptr, ptr %4, align 8, !tbaa !21
  %16 = call ptr @SSL_get_srp_g(ptr noundef %15)
  store ptr %16, ptr %8, align 8, !tbaa !30
  %17 = icmp eq ptr %16, null
  br i1 %17, label %18, label %19

18:                                               ; preds = %14, %2
  store i32 0, ptr %3, align 4
  store i32 1, ptr %9, align 4
  br label %82

19:                                               ; preds = %14
  %20 = load ptr, ptr %6, align 8, !tbaa !8
  %21 = getelementptr inbounds nuw %struct.srp_arg_st, ptr %20, i32 0, i32 3
  %22 = load i32, ptr %21, align 4, !tbaa !18
  %23 = icmp ne i32 %22, 0
  br i1 %23, label %34, label %24

24:                                               ; preds = %19
  %25 = load ptr, ptr %6, align 8, !tbaa !8
  %26 = getelementptr inbounds nuw %struct.srp_arg_st, ptr %25, i32 0, i32 2
  %27 = load i32, ptr %26, align 8, !tbaa !17
  %28 = icmp ne i32 %27, 0
  br i1 %28, label %34, label %29

29:                                               ; preds = %24
  %30 = load ptr, ptr %6, align 8, !tbaa !8
  %31 = getelementptr inbounds nuw %struct.srp_arg_st, ptr %30, i32 0, i32 4
  %32 = load i32, ptr %31, align 8, !tbaa !20
  %33 = icmp eq i32 %32, 1
  br i1 %33, label %34, label %49

34:                                               ; preds = %29, %24, %19
  %35 = load ptr, ptr @bio_err, align 8, !tbaa !15
  %36 = call i32 (ptr, ptr, ...) @BIO_printf(ptr noundef %35, ptr noundef @.str.9)
  %37 = load ptr, ptr @bio_err, align 8, !tbaa !15
  %38 = call i32 (ptr, ptr, ...) @BIO_printf(ptr noundef %37, ptr noundef @.str.10)
  %39 = load ptr, ptr @bio_err, align 8, !tbaa !15
  %40 = load ptr, ptr %7, align 8, !tbaa !30
  %41 = call i32 @BN_print(ptr noundef %39, ptr noundef %40)
  %42 = load ptr, ptr @bio_err, align 8, !tbaa !15
  %43 = call i32 (ptr, ptr, ...) @BIO_printf(ptr noundef %42, ptr noundef @.str.11)
  %44 = load ptr, ptr @bio_err, align 8, !tbaa !15
  %45 = load ptr, ptr %8, align 8, !tbaa !30
  %46 = call i32 @BN_print(ptr noundef %44, ptr noundef %45)
  %47 = load ptr, ptr @bio_err, align 8, !tbaa !15
  %48 = call i32 (ptr, ptr, ...) @BIO_printf(ptr noundef %47, ptr noundef @.str.12)
  br label %49

49:                                               ; preds = %34, %29
  %50 = load ptr, ptr %8, align 8, !tbaa !30
  %51 = load ptr, ptr %7, align 8, !tbaa !30
  %52 = call ptr @SRP_check_known_gN_param(ptr noundef %50, ptr noundef %51)
  %53 = icmp ne ptr %52, null
  br i1 %53, label %54, label %55

54:                                               ; preds = %49
  store i32 1, ptr %3, align 4
  store i32 1, ptr %9, align 4
  br label %82

55:                                               ; preds = %49
  %56 = load ptr, ptr %6, align 8, !tbaa !8
  %57 = getelementptr inbounds nuw %struct.srp_arg_st, ptr %56, i32 0, i32 4
  %58 = load i32, ptr %57, align 8, !tbaa !20
  %59 = icmp eq i32 %58, 1
  br i1 %59, label %60, label %79

60:                                               ; preds = %55
  %61 = load ptr, ptr %6, align 8, !tbaa !8
  %62 = getelementptr inbounds nuw %struct.srp_arg_st, ptr %61, i32 0, i32 3
  %63 = load i32, ptr %62, align 4, !tbaa !18
  %64 = icmp ne i32 %63, 0
  br i1 %64, label %65, label %68

65:                                               ; preds = %60
  %66 = load ptr, ptr @bio_err, align 8, !tbaa !15
  %67 = call i32 (ptr, ptr, ...) @BIO_printf(ptr noundef %66, ptr noundef @.str.13)
  br label %68

68:                                               ; preds = %65, %60
  %69 = load ptr, ptr %8, align 8, !tbaa !30
  %70 = call i32 @BN_num_bits(ptr noundef %69)
  %71 = icmp sle i32 %70, 128
  br i1 %71, label %72, label %78

72:                                               ; preds = %68
  %73 = load ptr, ptr %7, align 8, !tbaa !30
  %74 = load ptr, ptr %8, align 8, !tbaa !30
  %75 = call i32 @srp_Verify_N_and_g(ptr noundef %73, ptr noundef %74)
  %76 = icmp ne i32 %75, 0
  br i1 %76, label %77, label %78

77:                                               ; preds = %72
  store i32 1, ptr %3, align 4
  store i32 1, ptr %9, align 4
  br label %82

78:                                               ; preds = %72, %68
  br label %79

79:                                               ; preds = %78, %55
  %80 = load ptr, ptr @bio_err, align 8, !tbaa !15
  %81 = call i32 (ptr, ptr, ...) @BIO_printf(ptr noundef %80, ptr noundef @.str.14)
  store i32 0, ptr %3, align 4
  store i32 1, ptr %9, align 4
  br label %82

82:                                               ; preds = %79, %77, %54, %18
  call void @llvm.lifetime.end.p0(i64 8, ptr %8) #3
  call void @llvm.lifetime.end.p0(i64 8, ptr %7) #3
  call void @llvm.lifetime.end.p0(i64 8, ptr %6) #3
  %83 = load i32, ptr %3, align 4
  ret i32 %83
}