; Function Attrs: nounwind uwtable
define internal range(i32 0, 2) i32 @ssl_srp_verify_param_cb(ptr noundef %0, ptr noundef readonly captures(none) %1) #0 {
  %3 = tail call ptr @SSL_get_srp_N(ptr noundef %0) #4
  %4 = icmp eq ptr %3, null
  br i1 %4, label %69, label %5

5:                                                ; preds = %2
  %6 = tail call ptr @SSL_get_srp_g(ptr noundef %0) #4
  %7 = icmp eq ptr %6, null
  br i1 %7, label %69, label %8

8:                                                ; preds = %5
  %9 = getelementptr inbounds nuw i8, ptr %1, i64 20
  %10 = load i32, ptr %9, align 4, !tbaa !15
  %.not = icmp eq i32 %10, 0
  br i1 %.not, label %11, label %18

11:                                               ; preds = %8
  %12 = getelementptr inbounds nuw i8, ptr %1, i64 16
  %13 = load i32, ptr %12, align 8, !tbaa !14
  %.not17 = icmp eq i32 %13, 0
  br i1 %.not17, label %14, label %18

14:                                               ; preds = %11
  %15 = getelementptr inbounds nuw i8, ptr %1, i64 24
  %16 = load i32, ptr %15, align 8, !tbaa !17
  %17 = icmp eq i32 %16, 1
  br i1 %17, label %18, label %31

18:                                               ; preds = %14, %11, %8
  %19 = load ptr, ptr @bio_err, align 8, !tbaa !12
  %20 = tail call i32 (ptr, ptr, ...) @BIO_printf(ptr noundef %19, ptr noundef nonnull @.str.9) #4
  %21 = load ptr, ptr @bio_err, align 8, !tbaa !12
  %22 = tail call i32 (ptr, ptr, ...) @BIO_printf(ptr noundef %21, ptr noundef nonnull @.str.10) #4
  %23 = load ptr, ptr @bio_err, align 8, !tbaa !12
  %24 = tail call i32 @BN_print(ptr noundef %23, ptr noundef nonnull %3) #4
  %25 = load ptr, ptr @bio_err, align 8, !tbaa !12
  %26 = tail call i32 (ptr, ptr, ...) @BIO_printf(ptr noundef %25, ptr noundef nonnull @.str.11) #4
  %27 = load ptr, ptr @bio_err, align 8, !tbaa !12
  %28 = tail call i32 @BN_print(ptr noundef %27, ptr noundef nonnull %6) #4
  %29 = load ptr, ptr @bio_err, align 8, !tbaa !12
  %30 = tail call i32 (ptr, ptr, ...) @BIO_printf(ptr noundef %29, ptr noundef nonnull @.str.12) #4
  br label %31

31:                                               ; preds = %18, %14
  %32 = tail call ptr @SRP_check_known_gN_param(ptr noundef nonnull %6, ptr noundef nonnull %3) #4
  %.not18 = icmp eq ptr %32, null
  br i1 %.not18, label %33, label %69

33:                                               ; preds = %31
  %34 = getelementptr inbounds nuw i8, ptr %1, i64 24
  %35 = load i32, ptr %34, align 8, !tbaa !17
  %36 = icmp eq i32 %35, 1
  br i1 %36, label %37, label %66

37:                                               ; preds = %33
  %38 = load i32, ptr %9, align 4, !tbaa !15
  %.not19 = icmp eq i32 %38, 0
  br i1 %.not19, label %42, label %39

39:                                               ; preds = %37
  %40 = load ptr, ptr @bio_err, align 8, !tbaa !12
  %41 = tail call i32 (ptr, ptr, ...) @BIO_printf(ptr noundef %40, ptr noundef nonnull @.str.13) #4
  br label %42

42:                                               ; preds = %39, %37
  %43 = tail call i32 @BN_num_bits(ptr noundef nonnull %6) #4
  %44 = icmp slt i32 %43, 129
  br i1 %44, label %45, label %66

45:                                               ; preds = %42
  %46 = tail call ptr @BN_CTX_new() #4
  %47 = tail call ptr @BN_new() #4
  %48 = tail call ptr @BN_new() #4
  %.not.i = icmp eq ptr %46, null
  br i1 %.not.i, label %.critedge, label %49

49:                                               ; preds = %45
  %50 = tail call i32 @BN_is_odd(ptr noundef nonnull %3) #4
  %.not34.i = icmp eq i32 %50, 0
  br i1 %.not34.i, label %.critedge, label %51

51:                                               ; preds = %49
  %52 = tail call i32 @BN_check_prime(ptr noundef nonnull %3, ptr noundef nonnull %46, ptr noundef null) #4
  %53 = icmp eq i32 %52, 1
  %54 = icmp ne ptr %47, null
  %or.cond5.i = select i1 %53, i1 %54, i1 false
  br i1 %or.cond5.i, label %55, label %.critedge

55:                                               ; preds = %51
  %56 = tail call i32 @BN_rshift1(ptr noundef nonnull %47, ptr noundef nonnull %3) #4
  %.not35.i = icmp eq i32 %56, 0
  br i1 %.not35.i, label %.critedge, label %57

57:                                               ; preds = %55
  %58 = tail call i32 @BN_check_prime(ptr noundef nonnull %47, ptr noundef nonnull %46, ptr noundef null) #4
  %59 = icmp eq i32 %58, 1
  %60 = icmp ne ptr %48, null
  %or.cond7.i = select i1 %59, i1 %60, i1 false
  br i1 %or.cond7.i, label %61, label %.critedge

61:                                               ; preds = %57
  %62 = tail call i32 @BN_mod_exp(ptr noundef nonnull %48, ptr noundef nonnull %6, ptr noundef nonnull %47, ptr noundef nonnull %3, ptr noundef nonnull %46) #4
  %.not36.i = icmp eq i32 %62, 0
  br i1 %.not36.i, label %.critedge, label %63

63:                                               ; preds = %61
  %64 = tail call i32 @BN_add_word(ptr noundef nonnull %48, i64 noundef 1) #4
  %.not37.i = icmp eq i32 %64, 0
  br i1 %.not37.i, label %.critedge, label %srp_Verify_N_and_g.exit

srp_Verify_N_and_g.exit:                          ; preds = %63
  %65 = tail call i32 @BN_cmp(ptr noundef nonnull %48, ptr noundef nonnull %3) #4
  %.not21 = icmp eq i32 %65, 0
  tail call void @BN_free(ptr noundef nonnull %48) #4
  tail call void @BN_free(ptr noundef nonnull %47) #4
  tail call void @BN_CTX_free(ptr noundef nonnull %46) #4
  br i1 %.not21, label %69, label %66

.critedge:                                        ; preds = %45, %49, %51, %55, %57, %61, %63
  tail call void @BN_free(ptr noundef %48) #4
  tail call void @BN_free(ptr noundef %47) #4
  tail call void @BN_CTX_free(ptr noundef %46) #4
  br label %66

66:                                               ; preds = %.critedge, %42, %srp_Verify_N_and_g.exit, %33
  %67 = load ptr, ptr @bio_err, align 8, !tbaa !12
  %68 = tail call i32 (ptr, ptr, ...) @BIO_printf(ptr noundef %67, ptr noundef nonnull @.str.14) #4
  br label %69

69:                                               ; preds = %srp_Verify_N_and_g.exit, %31, %2, %5, %66
  %.0 = phi i32 [ 0, %66 ], [ 0, %5 ], [ 0, %2 ], [ 1, %31 ], [ 1, %srp_Verify_N_and_g.exit ]
  ret i32 %.0
}